# SymbolsHelper-Confirmed: 6.0.0 amd64
libKF6I18nLocaleData.so.6 libkf6i18nlocaledata6 #MINVER#
* Build-Depends-Package: libkf6i18n-dev
 _ZGVZN9QMetaType21registerConverterImplI5QListI19KCountrySubdivisionE9QIterableI13QMetaSequenceEEEbSt8functionIFbPKvPvEES_S_E10unregister@Base 6.0.0
 _ZGVZN9QMetaType23registerMutableViewImplI5QListI19KCountrySubdivisionE9QIterableI13QMetaSequenceEEEbSt8functionIFbPvS8_EES_S_E10unregister@Base 6.0.0
 _ZN13QMetaSequence12MetaSequenceI5QListI19KCountrySubdivisionEE5valueE@Base 6.0.0
 _ZN19KCountrySubdivision12fromLocationEff@Base 6.0.0
 _ZN19KCountrySubdivision16staticMetaObjectE@Base 6.0.0
 _ZN19KCountrySubdivision8fromCodeE11QStringView@Base 6.0.0
 _ZN19KCountrySubdivision8fromCodeEPKc@Base 6.0.0
 _ZN19KCountrySubdivisionC1ERKS_@Base 6.0.0
 _ZN19KCountrySubdivisionC1Ev@Base 6.0.0
 _ZN19KCountrySubdivisionC2ERKS_@Base 6.0.0
 _ZN19KCountrySubdivisionC2Ev@Base 6.0.0
 _ZN19KCountrySubdivisionD1Ev@Base 6.0.0
 _ZN19KCountrySubdivisionD2Ev@Base 6.0.0
 _ZN19KCountrySubdivisionaSERKS_@Base 6.0.0
 _ZN8KCountry10fromAlpha2E11QStringView@Base 6.0.0
 _ZN8KCountry10fromAlpha2EPKc@Base 6.0.0
 _ZN8KCountry10fromAlpha3E11QStringView@Base 6.0.0
 _ZN8KCountry10fromAlpha3EPKc@Base 6.0.0
 _ZN8KCountry11fromQLocaleEN7QLocale7CountryE@Base 6.0.0
 _ZN8KCountry12allCountriesEv@Base 6.0.0
 _ZN8KCountry12fromLocationEff@Base 6.0.0
 _ZN8KCountry16staticMetaObjectE@Base 6.0.0
 _ZN8KCountry8fromNameE11QStringView@Base 6.0.0
 _ZN8KCountryC1ERKS_@Base 6.0.0
 _ZN8KCountryC1Ev@Base 6.0.0
 _ZN8KCountryC2ERKS_@Base 6.0.0
 _ZN8KCountryC2Ev@Base 6.0.0
 _ZN8KCountryD1Ev@Base 6.0.0
 _ZN8KCountryD2Ev@Base 6.0.0
 _ZN8KCountryaSERKS_@Base 6.0.0
 _ZN9KTimeZone12fromLocationEff@Base 6.0.0
 _ZN9KTimeZone7countryEPKc@Base 6.0.0
 _ZNK19KCountrySubdivision11timeZoneIdsEv@Base 6.0.0
 _ZNK19KCountrySubdivision12subdivisionsEv@Base 6.0.0
 _ZNK19KCountrySubdivision4codeEv@Base 6.0.0
 _ZNK19KCountrySubdivision4nameEv@Base 6.0.0
 _ZNK19KCountrySubdivision6parentEv@Base 6.0.0
 _ZNK19KCountrySubdivision7countryEv@Base 6.0.0
 _ZNK19KCountrySubdivision7isValidEv@Base 6.0.0
 _ZNK19KCountrySubdivisioneqERKS_@Base 6.0.0
 _ZNK19KCountrySubdivisionneERKS_@Base 6.0.0
 _ZNK8KCountry11timeZoneIdsEv@Base 6.0.0
 _ZNK8KCountry12currencyCodeEv@Base 6.0.0
 _ZNK8KCountry12subdivisionsEv@Base 6.0.0
 _ZNK8KCountry4nameEv@Base 6.0.0
 _ZNK8KCountry6alpha2Ev@Base 6.0.0
 _ZNK8KCountry6alpha3Ev@Base 6.0.0
 _ZNK8KCountry7countryEv@Base 6.0.0
 _ZNK8KCountry7isValidEv@Base 6.0.0
 _ZNK8KCountry9emojiFlagEv@Base 6.0.0
 _ZNK8KCountryeqERKS_@Base 6.0.0
 _ZNK8KCountryneERKS_@Base 6.0.0
 _ZTIZN9QMetaType17registerConverterI5QListI19KCountrySubdivisionE9QIterableI13QMetaSequenceEN9QtPrivate33QSequentialIterableConvertFunctorIS3_EEEEbT1_EUlPKvPvE_@Base 6.0.0
 _ZTIZN9QMetaType19registerMutableViewI5QListI19KCountrySubdivisionE9QIterableI13QMetaSequenceEN9QtPrivate37QSequentialIterableMutableViewFunctorIS3_EEEEbT1_EUlPvSB_E_@Base 6.0.0
 _ZTSZN9QMetaType17registerConverterI5QListI19KCountrySubdivisionE9QIterableI13QMetaSequenceEN9QtPrivate33QSequentialIterableConvertFunctorIS3_EEEEbT1_EUlPKvPvE_@Base 6.0.0
 _ZTSZN9QMetaType19registerMutableViewI5QListI19KCountrySubdivisionE9QIterableI13QMetaSequenceEN9QtPrivate37QSequentialIterableMutableViewFunctorIS3_EEEEbT1_EUlPvSB_E_@Base 6.0.0
 (optional=templinst)_ZZN9QMetaType21registerConverterImplI5QListI19KCountrySubdivisionE9QIterableI13QMetaSequenceEEEbSt8functionIFbPKvPvEES_S_E10unregister@Base 6.0.0
 (optional=templinst)_ZZN9QMetaType23registerMutableViewImplI5QListI19KCountrySubdivisionE9QIterableI13QMetaSequenceEEEbSt8functionIFbPvS8_EES_S_E10unregister@Base 6.0.0
