# SymbolsHelper-Confirmed: 6.8.0 amd64
libKF6I18nQml.so.6 libkf6i18nqml6 #MINVER#
* Build-Depends-Package: libkf6i18n-dev
 _ZN13KLocalization8Internal22createLocalizedContextEP10QQmlEngine@Base 6.8.0
 _ZN20KLocalizedQmlContext11eventFilterEP7QObjectP6QEvent@Base 6.8.0
 _ZN20KLocalizedQmlContext11qt_metacallEN11QMetaObject4CallEiPPv@Base 6.8.0
 _ZN20KLocalizedQmlContext11qt_metacastEPKc@Base 6.8.0
 _ZN20KLocalizedQmlContext16staticMetaObjectE@Base 6.8.0
 _ZN20KLocalizedQmlContext20setTranslationDomainERK7QString@Base 6.8.0
 _ZN20KLocalizedQmlContext24translationDomainChangedERK7QString@Base 6.8.0
 _ZN20KLocalizedQmlContextC1EP7QObject@Base 6.8.0
 _ZN20KLocalizedQmlContextC2EP7QObject@Base 6.8.0
 _ZN20KLocalizedQmlContextD0Ev@Base 6.8.0
 _ZN20KLocalizedQmlContextD1Ev@Base 6.8.0
 _ZN20KLocalizedQmlContextD2Ev@Base 6.8.0
 _ZNK20KLocalizedQmlContext10metaObjectEv@Base 6.8.0
 _ZNK20KLocalizedQmlContext17translationDomainEv@Base 6.8.0
 _ZNK20KLocalizedQmlContext4i18nERK7QStringRK8QVariantS5_S5_S5_S5_S5_S5_S5_S5_S5_@Base 6.8.0
 _ZNK20KLocalizedQmlContext5i18ncERK7QStringS2_RK8QVariantS5_S5_S5_S5_S5_S5_S5_S5_S5_@Base 6.8.0
 _ZNK20KLocalizedQmlContext5i18ndERK7QStringS2_RK8QVariantS5_S5_S5_S5_S5_S5_S5_S5_S5_@Base 6.8.0
 _ZNK20KLocalizedQmlContext5i18npERK7QStringS2_RK8QVariantS5_S5_S5_S5_S5_S5_S5_S5_S5_@Base 6.8.0
 _ZNK20KLocalizedQmlContext5xi18nERK7QStringRK8QVariantS5_S5_S5_S5_S5_S5_S5_S5_S5_@Base 6.8.0
 _ZNK20KLocalizedQmlContext6i18ncpERK7QStringS2_S2_RK8QVariantS5_S5_S5_S5_S5_S5_S5_S5_S5_@Base 6.8.0
 _ZNK20KLocalizedQmlContext6i18ndcERK7QStringS2_S2_RK8QVariantS5_S5_S5_S5_S5_S5_S5_S5_S5_@Base 6.8.0
 _ZNK20KLocalizedQmlContext6i18ndpERK7QStringS2_S2_RK8QVariantS5_S5_S5_S5_S5_S5_S5_S5_S5_@Base 6.8.0
 _ZNK20KLocalizedQmlContext6xi18ncERK7QStringS2_RK8QVariantS5_S5_S5_S5_S5_S5_S5_S5_S5_@Base 6.8.0
 _ZNK20KLocalizedQmlContext6xi18ndERK7QStringS2_RK8QVariantS5_S5_S5_S5_S5_S5_S5_S5_S5_@Base 6.8.0
 _ZNK20KLocalizedQmlContext6xi18npERK7QStringS2_RK8QVariantS5_S5_S5_S5_S5_S5_S5_S5_S5_@Base 6.8.0
 _ZNK20KLocalizedQmlContext7i18ndcpERK7QStringS2_S2_S2_RK8QVariantS5_S5_S5_S5_S5_S5_S5_S5_S5_@Base 6.8.0
 _ZNK20KLocalizedQmlContext7xi18ncpERK7QStringS2_S2_RK8QVariantS5_S5_S5_S5_S5_S5_S5_S5_S5_@Base 6.8.0
 _ZNK20KLocalizedQmlContext7xi18ndcERK7QStringS2_S2_RK8QVariantS5_S5_S5_S5_S5_S5_S5_S5_S5_@Base 6.8.0
 _ZNK20KLocalizedQmlContext7xi18ndpERK7QStringS2_S2_RK8QVariantS5_S5_S5_S5_S5_S5_S5_S5_S5_@Base 6.8.0
 _ZNK20KLocalizedQmlContext8xi18ndcpERK7QStringS2_S2_S2_RK8QVariantS5_S5_S5_S5_S5_S5_S5_S5_S5_@Base 6.8.0
 _ZTI20KLocalizedQmlContext@Base 6.8.0
 _ZTS20KLocalizedQmlContext@Base 6.8.0
 _ZTV20KLocalizedQmlContext@Base 6.8.0
